; Function Attrs: inlinehint null_pointer_is_valid sspstrong uwtable
define internal fastcc void @copy_address(ptr noundef writeonly captures(none) initializes((0, 24)) %0, ptr noundef readonly captures(none) %1) unnamed_addr #7 {
  %3 = load i32, ptr %1, align 8
  %4 = getelementptr inbounds nuw i8, ptr %1, i64 4
  %5 = load i32, ptr %4, align 4
  %6 = getelementptr inbounds nuw i8, ptr %1, i64 8
  %7 = load ptr, ptr %6, align 8
  tail call void @llvm.memset.p0.i64(ptr noundef align 8 dereferenceable(24) %0, i8 0, i64 24, i1 false)
  store i32 %3, ptr %0, align 8
  %8 = icmp eq i32 %5, 0
  br i1 %8, label %copy_address_wmem.exit, label %9

9:                                                ; preds = %2
  %10 = sext i32 %5 to i64
  %11 = tail call ptr @wmem_memdup(ptr noundef null, ptr noundef %7, i64 noundef %10) #16
  %12 = getelementptr inbounds nuw i8, ptr %0, i64 16
  store ptr %11, ptr %12, align 8
  %13 = getelementptr inbounds nuw i8, ptr %0, i64 8
  store ptr %11, ptr %13, align 8
  %14 = getelementptr inbounds nuw i8, ptr %0, i64 4
  store i32 %5, ptr %14, align 4
  br label %copy_address_wmem.exit

copy_address_wmem.exit:                           ; preds = %2, %9
  ret void
}